target datalayout = "e-m:e-p270:32:32-p271:32:32-p272:64:64-i64:64-i128:128-f80:128-n8:16:32:64-S128"
target triple = "x86_64-pc-linux-gnu"

%struct.SDL_VideoDevice = type { ptr, ptr, ptr, ptr, ptr, ptr, ptr, ptr, ptr, ptr, ptr, ptr, ptr, ptr, ptr, ptr, ptr, ptr, ptr, ptr, ptr, ptr, ptr, ptr, ptr, ptr, ptr, ptr, ptr, ptr, ptr, ptr, ptr, ptr, ptr, ptr, ptr, ptr, ptr, ptr, ptr, ptr, ptr, ptr, ptr, ptr, ptr, ptr, ptr, ptr, ptr, ptr, ptr, ptr, ptr, ptr, ptr, ptr, ptr, ptr, ptr, ptr, ptr, ptr, ptr, ptr, ptr, ptr, ptr, ptr, ptr, ptr, ptr, ptr, ptr, ptr, ptr, ptr, ptr, ptr, ptr, ptr, ptr, ptr, ptr, ptr, ptr, ptr, ptr, ptr, ptr, ptr, ptr, ptr, ptr, ptr, ptr, i64, i8, i8, i8, ptr, i32, ptr, %struct.SDL_Rect, ptr, ptr, i32, ptr, ptr, ptr, ptr, i64, ptr, i8, i32, i32, %struct.anon, ptr, ptr, ptr, ptr, ptr, ptr, %struct.SDL_AtomicInt, %struct.SDL_AtomicInt, i8, %struct.anon.0, ptr, ptr, ptr, ptr, ptr }
%struct.SDL_Rect = type { i32, i32, i32, i32 }
%struct.anon = type { i32, i32, i32, i32, i32, i32, i32, i32, i32, i32, i32, i32, i32, i32, i32, i32, i32, i32, i32, i32, i32, i32, i32, i32, i32, i32, i32, i32, i32, [256 x i8], ptr }
%struct.SDL_AtomicInt = type { i32 }
%struct.anon.0 = type { ptr, ptr, i32, [256 x i8], ptr }

@SDL_GetTextMimeTypes.text_mime_types = internal global [1 x ptr] [ptr @.str.6], align 8

; Function Attrs: nounwind uwtable
define internal ptr @SDL_GetTextMimeTypes(ptr noundef %0, ptr noundef %1) #0 {
  %3 = alloca ptr, align 8
  %4 = alloca ptr, align 8
  %5 = alloca ptr, align 8
  store ptr %0, ptr %4, align 8
  store ptr %1, ptr %5, align 8
  %6 = load ptr, ptr %4, align 8
  %7 = getelementptr inbounds nuw %struct.SDL_VideoDevice, ptr %6, i32 0, i32 83
  %8 = load ptr, ptr %7, align 8
  %9 = icmp ne ptr %8, null
  br i1 %9, label %10, label %17

10:                                               ; preds = %2
  %11 = load ptr, ptr %4, align 8
  %12 = getelementptr inbounds nuw %struct.SDL_VideoDevice, ptr %11, i32 0, i32 83
  %13 = load ptr, ptr %12, align 8
  %14 = load ptr, ptr %4, align 8
  %15 = load ptr, ptr %5, align 8
  %16 = call ptr %13(ptr noundef %14, ptr noundef %15)
  store ptr %16, ptr %3, align 8
  br label %19

17:                                               ; preds = %2
  %18 = load ptr, ptr %5, align 8
  store i64 1, ptr %18, align 8
  store ptr @SDL_GetTextMimeTypes.text_mime_types, ptr %3, align 8
  br label %19

19:                                               ; preds = %17, %10
  %20 = load ptr, ptr %3, align 8
  ret ptr %20
}

; Function Attrs: nounwind uwtable
define hidden zeroext i1 @SDL_HasClipboardText_REAL() #0 {
  %1 = alloca i1, align 1
  %2 = alloca ptr, align 8
  %3 = alloca i64, align 8
  %4 = alloca i64, align 8
  %5 = alloca ptr, align 8
  %6 = alloca i32, align 4
  call void @llvm.lifetime.start.p0(i64 8, ptr %2) #5
  %7 = call ptr @SDL_GetVideoDevice()
  store ptr %7, ptr %2, align 8
  call void @llvm.lifetime.start.p0(i64 8, ptr %3) #5
  call void @llvm.lifetime.start.p0(i64 8, ptr %4) #5
  call void @llvm.lifetime.start.p0(i64 8, ptr %5) #5
  %8 = load ptr, ptr %2, align 8
  %9 = icmp ne ptr %8, null
  br i1 %9, label %12, label %10

10:                                               ; preds = %0
  %11 = call zeroext i1 @SDL_UninitializedVideo()
  store i1 %11, ptr %1, align 1
  store i32 1, ptr %6, align 4
  br label %31

12:                                               ; preds = %0
  %13 = load ptr, ptr %2, align 8
  %14 = call ptr @SDL_GetTextMimeTypes(ptr noundef %13, ptr noundef %4)
  store ptr %14, ptr %5, align 8
  store i64 0, ptr %3, align 8
  br label %15

15:                                               ; preds = %27, %12
  %16 = load i64, ptr %3, align 8
  %17 = load i64, ptr %4, align 8
  %18 = icmp ult i64 %16, %17
  br i1 %18, label %19, label %30

19:                                               ; preds = %15
  %20 = load ptr, ptr %5, align 8
  %21 = load i64, ptr %3, align 8
  %22 = getelementptr inbounds nuw ptr, ptr %20, i64 %21
  %23 = load ptr, ptr %22, align 8
  %24 = call zeroext i1 @SDL_HasClipboardData_REAL(ptr noundef %23)
  br i1 %24, label %25, label %26

25:                                               ; preds = %19
  store i1 true, ptr %1, align 1
  store i32 1, ptr %6, align 4
  br label %31

26:                                               ; preds = %19
  br label %27

27:                                               ; preds = %26
  %28 = load i64, ptr %3, align 8
  %29 = add i64 %28, 1
  store i64 %29, ptr %3, align 8
  br label %15, !llvm.loop !14

30:                                               ; preds = %15
  store i1 false, ptr %1, align 1
  store i32 1, ptr %6, align 4
  br label %31

31:                                               ; preds = %30, %25, %10
  call void @llvm.lifetime.end.p0(i64 8, ptr %5) #5
  call void @llvm.lifetime.end.p0(i64 8, ptr %4) #5
  call void @llvm.lifetime.end.p0(i64 8, ptr %3) #5
  call void @llvm.lifetime.end.p0(i64 8, ptr %2) #5
  %32 = load i1, ptr %1, align 1
  ret i1 %32
}