; Function Attrs: nounwind uwtable
define hidden zeroext i1 @SDL_HasClipboardText_REAL() local_unnamed_addr #0 {
  %1 = alloca i64, align 8
  %2 = tail call ptr @SDL_GetVideoDevice() #6
  call void @llvm.lifetime.start.p0(i64 8, ptr nonnull %1) #6
  %.not = icmp eq ptr %2, null
  br i1 %.not, label %3, label %5

3:                                                ; preds = %0
  %4 = tail call zeroext i1 @SDL_UninitializedVideo() #6
  br label %.loopexit

5:                                                ; preds = %0
  %6 = getelementptr inbounds nuw i8, ptr %2, i64 664
  %7 = load ptr, ptr %6, align 8
  %.not.i = icmp eq ptr %7, null
  br i1 %.not.i, label %SDL_GetTextMimeTypes.exit.thread, label %SDL_GetTextMimeTypes.exit

SDL_GetTextMimeTypes.exit.thread:                 ; preds = %5
  store i64 1, ptr %1, align 8
  br label %.lr.ph.preheader

SDL_GetTextMimeTypes.exit:                        ; preds = %5
  %8 = call ptr %7(ptr noundef nonnull %2, ptr noundef nonnull %1) #6
  %.pre = load i64, ptr %1, align 8
  %9 = icmp eq i64 %.pre, 0
  br i1 %9, label %.loopexit, label %.lr.ph.preheader

.lr.ph.preheader:                                 ; preds = %SDL_GetTextMimeTypes.exit.thread, %SDL_GetTextMimeTypes.exit
  %.0.i14 = phi ptr [ @SDL_GetTextMimeTypes.text_mime_types, %SDL_GetTextMimeTypes.exit.thread ], [ %8, %SDL_GetTextMimeTypes.exit ]
  br label %.lr.ph

10:                                               ; preds = %.lr.ph
  %11 = add nuw i64 %.068, 1
  %12 = load i64, ptr %1, align 8
  %13 = icmp ult i64 %11, %12
  br i1 %13, label %.lr.ph, label %.loopexit, !llvm.loop !12

.lr.ph:                                           ; preds = %.lr.ph.preheader, %10
  %.068 = phi i64 [ %11, %10 ], [ 0, %.lr.ph.preheader ]
  %14 = getelementptr inbounds nuw ptr, ptr %.0.i14, i64 %.068
  %15 = load ptr, ptr %14, align 8
  %16 = call zeroext i1 @SDL_HasClipboardData_REAL(ptr noundef %15)
  br i1 %16, label %.loopexit, label %10

.loopexit:                                        ; preds = %.lr.ph, %10, %SDL_GetTextMimeTypes.exit, %3
  %.0 = phi i1 [ %4, %3 ], [ false, %SDL_GetTextMimeTypes.exit ], [ %16, %10 ], [ %16, %.lr.ph ]
  call void @llvm.lifetime.end.p0(i64 8, ptr nonnull %1) #6
  ret i1 %.0
}